; Function Attrs: mustprogress uwtable
define void @_ZN4YAML6detail9node_data14convert_to_mapERKSt10shared_ptrINS0_13memory_holderEE(ptr noundef nonnull align 8 dereferenceable(176) %this, ptr nocapture noundef nonnull readonly align 8 dereferenceable(16) %pMemory) local_unnamed_addr #6 align 2 personality ptr @__gxx_personality_v0 {
entry:
  %m_type = getelementptr inbounds i8, ptr %this, i64 16
  %0 = load i32, ptr %m_type, align 8
  switch i32 %0, label %sw.epilog [
    i32 0, label %sw.bb
    i32 1, label %sw.bb
    i32 3, label %sw.bb3
  ]

sw.bb:                                            ; preds = %entry, %entry
  %m_map.i = getelementptr inbounds i8, ptr %this, i64 128
  %1 = load ptr, ptr %m_map.i, align 8
  %_M_finish.i.i.i = getelementptr inbounds i8, ptr %this, i64 136
  %2 = load ptr, ptr %_M_finish.i.i.i, align 8
  %tobool.not.i.i.i = icmp eq ptr %2, %1
  br i1 %tobool.not.i.i.i, label %_ZNSt6vectorISt4pairIPN4YAML6detail4nodeES4_ESaIS5_EE5clearEv.exit.i, label %invoke.cont.i.i.i

invoke.cont.i.i.i:                                ; preds = %sw.bb
  store ptr %1, ptr %_M_finish.i.i.i, align 8
  br label %_ZNSt6vectorISt4pairIPN4YAML6detail4nodeES4_ESaIS5_EE5clearEv.exit.i

_ZNSt6vectorISt4pairIPN4YAML6detail4nodeES4_ESaIS5_EE5clearEv.exit.i: ; preds = %invoke.cont.i.i.i, %sw.bb
  %m_undefinedPairs.i = getelementptr inbounds i8, ptr %this, i64 152
  %3 = load ptr, ptr %m_undefinedPairs.i, align 8
  %cmp.not4.i.i.i = icmp eq ptr %3, %m_undefinedPairs.i
  br i1 %cmp.not4.i.i.i, label %_ZN4YAML6detail9node_data9reset_mapEv.exit, label %while.body.i.i.i

while.body.i.i.i:                                 ; preds = %_ZNSt6vectorISt4pairIPN4YAML6detail4nodeES4_ESaIS5_EE5clearEv.exit.i, %while.body.i.i.i
  %__cur.05.i.i.i = phi ptr [ %4, %while.body.i.i.i ], [ %3, %_ZNSt6vectorISt4pairIPN4YAML6detail4nodeES4_ESaIS5_EE5clearEv.exit.i ]
  %4 = load ptr, ptr %__cur.05.i.i.i, align 8
  tail call void @_ZdlPv(ptr noundef %__cur.05.i.i.i) #19
  %cmp.not.i.i.i = icmp eq ptr %4, %m_undefinedPairs.i
  br i1 %cmp.not.i.i.i, label %_ZN4YAML6detail9node_data9reset_mapEv.exit, label %while.body.i.i.i, !llvm.loop !5

_ZN4YAML6detail9node_data9reset_mapEv.exit:       ; preds = %while.body.i.i.i, %_ZNSt6vectorISt4pairIPN4YAML6detail4nodeES4_ESaIS5_EE5clearEv.exit.i
  %_M_prev.i.i.i.i = getelementptr inbounds i8, ptr %this, i64 160
  store ptr %m_undefinedPairs.i, ptr %_M_prev.i.i.i.i, align 8
  store ptr %m_undefinedPairs.i, ptr %m_undefinedPairs.i, align 8
  %_M_size.i.i.i.i = getelementptr inbounds i8, ptr %this, i64 168
  store i64 0, ptr %_M_size.i.i.i.i, align 8
  store i32 4, ptr %m_type, align 8
  br label %sw.epilog

sw.bb3:                                           ; preds = %entry
  tail call void @_ZN4YAML6detail9node_data23convert_sequence_to_mapERKSt10shared_ptrINS0_13memory_holderEE(ptr noundef nonnull align 8 dereferenceable(176) %this, ptr noundef nonnull align 8 dereferenceable(16) %pMemory)
  br label %sw.epilog

sw.epilog:                                        ; preds = %sw.bb3, %_ZN4YAML6detail9node_data9reset_mapEv.exit, %entry
  ret void
}